target datalayout = "e-m:e-p270:32:32-p271:32:32-p272:64:64-i64:64-i128:128-f80:128-n8:16:32:64-S128"
target triple = "x86_64-pc-linux-gnu"

%"class.google::protobuf::io::ArrayOutputStream" = type { %"class.google::protobuf::io::ZeroCopyOutputStream", ptr, i32, i32, i32, i32 }
%"class.google::protobuf::io::ZeroCopyOutputStream" = type { ptr }
%"class.google::protobuf::io::CodedOutputStream" = type { %"class.google::protobuf::io::EpsCopyOutputStream", ptr, i64 }
%"class.google::protobuf::io::EpsCopyOutputStream" = type <{ ptr, ptr, [32 x i8], ptr, i8, i8, i8, [5 x i8] }>
%"struct.google::protobuf::internal::ArrayOutput" = type { ptr, i8 }

; Function Attrs: mustprogress nounwind uwtable
define linkonce_odr void @_ZN6google8protobuf2io17CodedOutputStream6SetCurEPh(ptr noundef nonnull align 8 dereferenceable(80) %0, ptr noundef %1) #4 comdat align 2 {
  %3 = alloca ptr, align 8
  %4 = alloca ptr, align 8
  store ptr %0, ptr %3, align 8, !tbaa !17
  store ptr %1, ptr %4, align 8, !tbaa !38
  %5 = load ptr, ptr %3, align 8
  %6 = load ptr, ptr %4, align 8, !tbaa !38
  %7 = getelementptr inbounds nuw %"class.google::protobuf::io::CodedOutputStream", ptr %5, i32 0, i32 1
  store ptr %6, ptr %7, align 8, !tbaa !29
  ret void
}

; Function Attrs: mustprogress nounwind uwtable
define linkonce_odr noundef ptr @_ZN6google8protobuf2io17CodedOutputStream7EpsCopyEv(ptr noundef nonnull align 8 dereferenceable(80) %0) #4 comdat align 2 {
  %2 = alloca ptr, align 8
  store ptr %0, ptr %2, align 8, !tbaa !17
  %3 = load ptr, ptr %2, align 8
  %4 = getelementptr inbounds nuw %"class.google::protobuf::io::CodedOutputStream", ptr %3, i32 0, i32 0
  ret ptr %4
}

; Function Attrs: mustprogress nounwind uwtable
define linkonce_odr noundef ptr @_ZNK6google8protobuf2io17CodedOutputStream3CurEv(ptr noundef nonnull align 8 dereferenceable(80) %0) #4 comdat align 2 {
  %2 = alloca ptr, align 8
  store ptr %0, ptr %2, align 8, !tbaa !17
  %3 = load ptr, ptr %2, align 8
  %4 = getelementptr inbounds nuw %"class.google::protobuf::io::CodedOutputStream", ptr %3, i32 0, i32 1
  %5 = load ptr, ptr %4, align 8, !tbaa !29
  ret ptr %5
}

; Function Attrs: mustprogress nounwind uwtable
define linkonce_odr void @_ZN6google8protobuf2io19EpsCopyOutputStream29SetSerializationDeterministicEb(ptr noundef nonnull align 8 dereferenceable(59) %0, i1 noundef zeroext %1) #4 comdat align 2 {
  %3 = alloca ptr, align 8
  %4 = alloca i8, align 1
  store ptr %0, ptr %3, align 8, !tbaa !196
  %5 = zext i1 %1 to i8
  store i8 %5, ptr %4, align 1, !tbaa !12
  %6 = load ptr, ptr %3, align 8
  %7 = load i8, ptr %4, align 1, !tbaa !12, !range !25, !noundef !26
  %8 = trunc i8 %7 to i1
  %9 = getelementptr inbounds nuw %"class.google::protobuf::io::EpsCopyOutputStream", ptr %6, i32 0, i32 6
  %10 = zext i1 %8 to i8
  store i8 %10, ptr %9, align 2, !tbaa !198
  ret void
}

; Function Attrs: mustprogress nounwind uwtable
define linkonce_odr void @_ZN6google8protobuf2io20ZeroCopyOutputStreamD2Ev(ptr noundef nonnull align 8 dereferenceable(8) %0) unnamed_addr #4 comdat align 2 {
  %2 = alloca ptr, align 8
  store ptr %0, ptr %2, align 8, !tbaa !27
  ret void
}

; Function Attrs: mustprogress uwtable
define linkonce_odr noundef i32 @_ZNK6google8protobuf2io17CodedOutputStream9ByteCountEv(ptr noundef nonnull align 8 dereferenceable(80) %0) #5 comdat align 2 {
  %2 = alloca ptr, align 8
  store ptr %0, ptr %2, align 8, !tbaa !17
  %3 = load ptr, ptr %2, align 8
  %4 = getelementptr inbounds nuw %"class.google::protobuf::io::CodedOutputStream", ptr %3, i32 0, i32 0
  %5 = getelementptr inbounds nuw %"class.google::protobuf::io::CodedOutputStream", ptr %3, i32 0, i32 1
  %6 = load ptr, ptr %5, align 8, !tbaa !29
  %7 = call noundef i64 @_ZNK6google8protobuf2io19EpsCopyOutputStream9ByteCountEPh(ptr noundef nonnull align 8 dereferenceable(59) %4, ptr noundef %6)
  %8 = getelementptr inbounds nuw %"class.google::protobuf::io::CodedOutputStream", ptr %3, i32 0, i32 2
  %9 = load i64, ptr %8, align 8, !tbaa !33
  %10 = sub nsw i64 %7, %9
  %11 = trunc i64 %10 to i32
  ret i32 %11
}

; Function Attrs: mustprogress uwtable
define linkonce_odr void @_ZNK6google8protobuf11MessageLite24SerializeWithCachedSizesEPNS0_2io17CodedOutputStreamE(ptr noundef nonnull align 8 dereferenceable(16) %0, ptr noundef %1) #5 comdat align 2 {
  %3 = alloca ptr, align 8
  %4 = alloca ptr, align 8
  store ptr %0, ptr %3, align 8, !tbaa !15
  store ptr %1, ptr %4, align 8, !tbaa !17
  %5 = load ptr, ptr %3, align 8
  %6 = load ptr, ptr %4, align 8, !tbaa !17
  %7 = load ptr, ptr %4, align 8, !tbaa !17
  %8 = call noundef ptr @_ZNK6google8protobuf2io17CodedOutputStream3CurEv(ptr noundef nonnull align 8 dereferenceable(80) %7)
  %9 = load ptr, ptr %4, align 8, !tbaa !17
  %10 = call noundef ptr @_ZN6google8protobuf2io17CodedOutputStream7EpsCopyEv(ptr noundef nonnull align 8 dereferenceable(80) %9)
  %11 = load ptr, ptr %5, align 8, !tbaa !7
  %12 = getelementptr inbounds ptr, ptr %11, i64 12
  %13 = load ptr, ptr %12, align 8
  %14 = call noundef ptr %13(ptr noundef nonnull align 8 dereferenceable(16) %5, ptr noundef %8, ptr noundef %10)
  call void @_ZN6google8protobuf2io17CodedOutputStream6SetCurEPh(ptr noundef nonnull align 8 dereferenceable(80) %6, ptr noundef %14)
  ret void
}

; Function Attrs: mustprogress uwtable
define linkonce_odr void @_ZN6google8protobuf2io17CodedOutputStream29SetSerializationDeterministicEb(ptr noundef nonnull align 8 dereferenceable(80) %0, i1 noundef zeroext %1) #5 comdat align 2 {
  %3 = alloca ptr, align 8
  %4 = alloca i8, align 1
  store ptr %0, ptr %3, align 8, !tbaa !17
  %5 = zext i1 %1 to i8
  store i8 %5, ptr %4, align 1, !tbaa !12
  %6 = load ptr, ptr %3, align 8
  %7 = getelementptr inbounds nuw %"class.google::protobuf::io::CodedOutputStream", ptr %6, i32 0, i32 0
  %8 = load i8, ptr %4, align 1, !tbaa !12, !range !25, !noundef !26
  %9 = trunc i8 %8 to i1
  call void @_ZN6google8protobuf2io19EpsCopyOutputStream29SetSerializationDeterministicEb(ptr noundef nonnull align 8 dereferenceable(59) %7, i1 noundef zeroext %9)
  ret void
}

; Function Attrs: mustprogress uwtable
define linkonce_odr void @_ZN6google8protobuf2io17CodedOutputStreamC2EPNS1_20ZeroCopyOutputStreamE(ptr noundef nonnull align 8 dereferenceable(80) %0, ptr noundef %1) unnamed_addr #5 comdat align 2 {
  %3 = alloca ptr, align 8
  %4 = alloca ptr, align 8
  store ptr %0, ptr %3, align 8, !tbaa !17
  store ptr %1, ptr %4, align 8, !tbaa !27
  %5 = load ptr, ptr %3, align 8
  %6 = load ptr, ptr %4, align 8, !tbaa !27
  call void @_ZN6google8protobuf2io17CodedOutputStreamC2EPNS1_20ZeroCopyOutputStreamEb(ptr noundef nonnull align 8 dereferenceable(80) %5, ptr noundef %6, i1 noundef zeroext true)
  ret void
}

; Function Attrs: mustprogress uwtable
define void @_ZN6google8protobuf8internal23SerializeMessageNoTableEPKNS0_11MessageLiteEPNS1_11ArrayOutputE(ptr noundef %0, ptr noundef %1) #5 personality ptr @__gxx_personality_v0 {
  %3 = alloca ptr, align 8
  %4 = alloca ptr, align 8
  %5 = alloca %"class.google::protobuf::io::ArrayOutputStream", align 8
  %6 = alloca %"class.google::protobuf::io::CodedOutputStream", align 8
  %7 = alloca ptr, align 8
  %8 = alloca i32, align 4
  store ptr %0, ptr %3, align 8, !tbaa !15
  store ptr %1, ptr %4, align 8, !tbaa !19
  call void @llvm.lifetime.start.p0(i64 32, ptr %5) #3
  %9 = load ptr, ptr %4, align 8, !tbaa !19
  %10 = getelementptr inbounds nuw %"struct.google::protobuf::internal::ArrayOutput", ptr %9, i32 0, i32 0
  %11 = load ptr, ptr %10, align 8, !tbaa !21
  call void @_ZN6google8protobuf2io17ArrayOutputStreamC1EPvii(ptr noundef nonnull align 8 dereferenceable(32) %5, ptr noundef %11, i32 noundef 2147483647, i32 noundef -1)
  call void @llvm.lifetime.start.p0(i64 80, ptr %6) #3
  invoke void @_ZN6google8protobuf2io17CodedOutputStreamC2EPNS1_20ZeroCopyOutputStreamE(ptr noundef nonnull align 8 dereferenceable(80) %6, ptr noundef %5)
          to label %12 unwind label %27

12:                                               ; preds = %2
  %13 = load ptr, ptr %4, align 8, !tbaa !19
  %14 = getelementptr inbounds nuw %"struct.google::protobuf::internal::ArrayOutput", ptr %13, i32 0, i32 1
  %15 = load i8, ptr %14, align 8, !tbaa !24, !range !25, !noundef !26
  %16 = trunc i8 %15 to i1
  invoke void @_ZN6google8protobuf2io17CodedOutputStream29SetSerializationDeterministicEb(ptr noundef nonnull align 8 dereferenceable(80) %6, i1 noundef zeroext %16)
          to label %17 unwind label %31

17:                                               ; preds = %12
  %18 = load ptr, ptr %3, align 8, !tbaa !15
  invoke void @_ZNK6google8protobuf11MessageLite24SerializeWithCachedSizesEPNS0_2io17CodedOutputStreamE(ptr noundef nonnull align 8 dereferenceable(16) %18, ptr noundef %6)
          to label %19 unwind label %31

19:                                               ; preds = %17
  %20 = invoke noundef i32 @_ZNK6google8protobuf2io17CodedOutputStream9ByteCountEv(ptr noundef nonnull align 8 dereferenceable(80) %6)
          to label %21 unwind label %31

21:                                               ; preds = %19
  %22 = load ptr, ptr %4, align 8, !tbaa !19
  %23 = getelementptr inbounds nuw %"struct.google::protobuf::internal::ArrayOutput", ptr %22, i32 0, i32 0
  %24 = load ptr, ptr %23, align 8, !tbaa !21
  %25 = sext i32 %20 to i64
  %26 = getelementptr inbounds i8, ptr %24, i64 %25
  store ptr %26, ptr %23, align 8, !tbaa !21
  call void @_ZN6google8protobuf2io17CodedOutputStreamD1Ev(ptr noundef nonnull align 8 dereferenceable(80) %6) #3
  call void @llvm.lifetime.end.p0(i64 80, ptr %6) #3
  call void @_ZN6google8protobuf2io20ZeroCopyOutputStreamD2Ev(ptr noundef nonnull align 8 dereferenceable(32) %5) #3
  call void @llvm.lifetime.end.p0(i64 32, ptr %5) #3
  ret void

27:                                               ; preds = %2
  %28 = landingpad { ptr, i32 }
          cleanup
  %29 = extractvalue { ptr, i32 } %28, 0
  store ptr %29, ptr %7, align 8
  %30 = extractvalue { ptr, i32 } %28, 1
  store i32 %30, ptr %8, align 4
  br label %35

31:                                               ; preds = %19, %17, %12
  %32 = landingpad { ptr, i32 }
          cleanup
  %33 = extractvalue { ptr, i32 } %32, 0
  store ptr %33, ptr %7, align 8
  %34 = extractvalue { ptr, i32 } %32, 1
  store i32 %34, ptr %8, align 4
  call void @_ZN6google8protobuf2io17CodedOutputStreamD1Ev(ptr noundef nonnull align 8 dereferenceable(80) %6) #3
  br label %35

35:                                               ; preds = %31, %27
  call void @llvm.lifetime.end.p0(i64 80, ptr %6) #3
  call void @_ZN6google8protobuf2io20ZeroCopyOutputStreamD2Ev(ptr noundef nonnull align 8 dereferenceable(32) %5) #3
  call void @llvm.lifetime.end.p0(i64 32, ptr %5) #3
  br label %36

36:                                               ; preds = %35
  %37 = load ptr, ptr %7, align 8
  %38 = load i32, ptr %8, align 4
  %39 = insertvalue { ptr, i32 } poison, ptr %37, 0
  %40 = insertvalue { ptr, i32 } %39, i32 %38, 1
  resume { ptr, i32 } %40
}